target datalayout = "e-m:e-p270:32:32-p271:32:32-p272:64:64-i64:64-i128:128-f80:128-n8:16:32:64-S128"
target triple = "x86_64-pc-linux-gnu"

%struct.SparseMatrix_struct = type { i32, i32, i32, i32, i32, ptr, ptr, ptr, i32, i8, i64 }

@stdout = external global ptr, align 8
@__const.map_palette_optimal_coloring.lightness = private unnamed_addr constant [2 x i32] [i32 0, i32 100], align 4
@stderr = external global ptr, align 8
@.str.25 = private unnamed_addr constant [58 x i8] c"integer overflow when trying to allocate %zu * %zu bytes\0A\00", align 1
@.str.26 = private unnamed_addr constant [49 x i8] c"out of memory when trying to allocate %zu bytes\0A\00", align 1

; Function Attrs: inlinehint nounwind uwtable
define internal ptr @gv_calloc(i64 noundef %0, i64 noundef %1) #5 {
  %3 = alloca i64, align 8
  %4 = alloca i64, align 8
  %5 = alloca ptr, align 8
  store i64 %0, ptr %3, align 8, !tbaa !35
  store i64 %1, ptr %4, align 8, !tbaa !35
  %6 = load i64, ptr %3, align 8, !tbaa !35
  %7 = icmp ugt i64 %6, 0
  br i1 %7, label %8, label %18

8:                                                ; preds = %2
  %9 = load i64, ptr %3, align 8, !tbaa !35
  %10 = udiv i64 -1, %9
  %11 = load i64, ptr %4, align 8, !tbaa !35
  %12 = icmp ult i64 %10, %11
  br i1 %12, label %13, label %18

13:                                               ; preds = %8
  %14 = load ptr, ptr @stderr, align 8, !tbaa !23
  %15 = load i64, ptr %3, align 8, !tbaa !35
  %16 = load i64, ptr %4, align 8, !tbaa !35
  %17 = call i32 (ptr, ptr, ...) @fprintf(ptr noundef %14, ptr noundef @.str.25, i64 noundef %15, i64 noundef %16) #14
  call void @graphviz_exit(i32 noundef 1) #15
  unreachable

18:                                               ; preds = %8, %2
  call void @llvm.lifetime.start.p0(i64 8, ptr %5) #14
  %19 = load i64, ptr %3, align 8, !tbaa !35
  %20 = load i64, ptr %4, align 8, !tbaa !35
  %21 = call noalias ptr @calloc(i64 noundef %19, i64 noundef %20) #16
  store ptr %21, ptr %5, align 8, !tbaa !36
  %22 = load i64, ptr %3, align 8, !tbaa !35
  %23 = icmp ugt i64 %22, 0
  br i1 %23, label %24, label %36

24:                                               ; preds = %18
  %25 = load i64, ptr %4, align 8, !tbaa !35
  %26 = icmp ugt i64 %25, 0
  br i1 %26, label %27, label %36

27:                                               ; preds = %24
  %28 = load ptr, ptr %5, align 8, !tbaa !36
  %29 = icmp eq ptr %28, null
  br i1 %29, label %30, label %36

30:                                               ; preds = %27
  %31 = load ptr, ptr @stderr, align 8, !tbaa !23
  %32 = load i64, ptr %3, align 8, !tbaa !35
  %33 = load i64, ptr %4, align 8, !tbaa !35
  %34 = mul i64 %32, %33
  %35 = call i32 (ptr, ptr, ...) @fprintf(ptr noundef %31, ptr noundef @.str.26, i64 noundef %34) #14
  call void @graphviz_exit(i32 noundef 1) #15
  unreachable

36:                                               ; preds = %27, %24, %18
  %37 = load ptr, ptr %5, align 8, !tbaa !36
  call void @llvm.lifetime.end.p0(i64 8, ptr %5) #14
  ret ptr %37
}

; Function Attrs: nounwind uwtable
define dso_local void @map_palette_optimal_coloring(ptr noundef %0, ptr noundef %1, ptr noundef %2, ptr noundef %3, ptr noundef %4) #0 {
  %6 = alloca ptr, align 8
  %7 = alloca ptr, align 8
  %8 = alloca ptr, align 8
  %9 = alloca ptr, align 8
  %10 = alloca ptr, align 8
  %11 = alloca ptr, align 8
  %12 = alloca i32, align 4
  %13 = alloca i32, align 4
  %14 = alloca i32, align 4
  %15 = alloca ptr, align 8
  %16 = alloca i8, align 1
  %17 = alloca ptr, align 8
  %18 = alloca [2 x i32], align 4
  %19 = alloca double, align 8
  %20 = alloca i32, align 4
  store ptr %0, ptr %6, align 8, !tbaa !4
  store ptr %1, ptr %7, align 8, !tbaa !9
  store ptr %2, ptr %8, align 8, !tbaa !11
  store ptr %3, ptr %9, align 8, !tbaa !11
  store ptr %4, ptr %10, align 8, !tbaa !11
  call void @llvm.lifetime.start.p0(i64 8, ptr %11) #14
  store ptr null, ptr %11, align 8, !tbaa !13
  call void @llvm.lifetime.start.p0(i64 4, ptr %12) #14
  %21 = load ptr, ptr %7, align 8, !tbaa !9
  %22 = getelementptr inbounds nuw %struct.SparseMatrix_struct, ptr %21, i32 0, i32 0
  %23 = load i32, ptr %22, align 8, !tbaa !15
  store i32 %23, ptr %12, align 4, !tbaa !21
  call void @llvm.lifetime.start.p0(i64 4, ptr %13) #14
  call void @llvm.lifetime.start.p0(i64 4, ptr %14) #14
  call void @llvm.lifetime.start.p0(i64 8, ptr %15) #14
  call void @llvm.lifetime.start.p0(i64 1, ptr %16) #14
  store i8 1, ptr %16, align 1, !tbaa !22
  call void @llvm.lifetime.start.p0(i64 8, ptr %17) #14
  store ptr null, ptr %17, align 8, !tbaa !13
  %24 = load ptr, ptr %7, align 8, !tbaa !9
  %25 = call ptr @SparseMatrix_symmetrize(ptr noundef %24, i1 noundef zeroext false)
  store ptr %25, ptr %15, align 8, !tbaa !9
  %26 = load ptr, ptr %15, align 8, !tbaa !9
  call void @SparseMatrix_distance_matrix(ptr noundef %26, ptr noundef %17)
  %27 = load ptr, ptr %15, align 8, !tbaa !9
  call void @SparseMatrix_delete(ptr noundef %27)
  %28 = load i32, ptr %12, align 4, !tbaa !21
  %29 = load i32, ptr %12, align 4, !tbaa !21
  %30 = load ptr, ptr %17, align 8, !tbaa !13
  %31 = call ptr @SparseMatrix_from_dense(i32 noundef %28, i32 noundef %29, ptr noundef %30)
  store ptr %31, ptr %15, align 8, !tbaa !9
  %32 = load ptr, ptr %17, align 8, !tbaa !13
  call void @free(ptr noundef %32) #14
  %33 = load ptr, ptr %15, align 8, !tbaa !9
  %34 = call ptr @SparseMatrix_remove_diagonal(ptr noundef %33)
  store ptr %34, ptr %15, align 8, !tbaa !9
  %35 = load ptr, ptr @stdout, align 8, !tbaa !23
  %36 = load ptr, ptr %15, align 8, !tbaa !9
  call void @SparseMatrix_export(ptr noundef %35, ptr noundef %36)
  call void @llvm.lifetime.end.p0(i64 8, ptr %17) #14
  call void @llvm.lifetime.start.p0(i64 8, ptr %18) #14
  call void @llvm.memcpy.p0.p0.i64(ptr align 4 %18, ptr align 4 @__const.map_palette_optimal_coloring.lightness, i64 8, i1 false)
  call void @llvm.lifetime.start.p0(i64 8, ptr %19) #14
  store double 1.000000e-02, ptr %19, align 8, !tbaa !25
  call void @llvm.lifetime.start.p0(i64 4, ptr %20) #14
  store i32 -10, ptr %20, align 4, !tbaa !21
  %37 = load ptr, ptr %6, align 8, !tbaa !4
  %38 = getelementptr inbounds [2 x i32], ptr %18, i64 0, i64 0
  %39 = load i8, ptr %16, align 1, !tbaa !22, !range !27, !noundef !28
  %40 = trunc i8 %39 to i1
  %41 = load ptr, ptr %15, align 8, !tbaa !9
  %42 = call i32 @node_distinct_coloring(ptr noundef %37, ptr noundef %38, i1 noundef zeroext %40, ptr noundef %41, double noundef 1.000000e-02, i32 noundef -10, ptr noundef %14, ptr noundef %11)
  %43 = load ptr, ptr %15, align 8, !tbaa !9
  %44 = load ptr, ptr %7, align 8, !tbaa !9
  %45 = icmp ne ptr %43, %44
  br i1 %45, label %46, label %48

46:                                               ; preds = %5
  %47 = load ptr, ptr %15, align 8, !tbaa !9
  call void @SparseMatrix_delete(ptr noundef %47)
  br label %48

48:                                               ; preds = %46, %5
  %49 = load i32, ptr %12, align 4, !tbaa !21
  %50 = add nsw i32 %49, 1
  %51 = sext i32 %50 to i64
  %52 = call ptr @gv_calloc(i64 noundef %51, i64 noundef 4)
  %53 = load ptr, ptr %8, align 8, !tbaa !11
  store ptr %52, ptr %53, align 8, !tbaa !29
  %54 = load i32, ptr %12, align 4, !tbaa !21
  %55 = add nsw i32 %54, 1
  %56 = sext i32 %55 to i64
  %57 = call ptr @gv_calloc(i64 noundef %56, i64 noundef 4)
  %58 = load ptr, ptr %9, align 8, !tbaa !11
  store ptr %57, ptr %58, align 8, !tbaa !29
  %59 = load i32, ptr %12, align 4, !tbaa !21
  %60 = add nsw i32 %59, 1
  %61 = sext i32 %60 to i64
  %62 = call ptr @gv_calloc(i64 noundef %61, i64 noundef 4)
  %63 = load ptr, ptr %10, align 8, !tbaa !11
  store ptr %62, ptr %63, align 8, !tbaa !29
  store i32 0, ptr %13, align 4, !tbaa !21
  br label %64

64:                                               ; preds = %113, %48
  %65 = load i32, ptr %13, align 4, !tbaa !21
  %66 = load i32, ptr %12, align 4, !tbaa !21
  %67 = icmp slt i32 %65, %66
  br i1 %67, label %68, label %116

68:                                               ; preds = %64
  %69 = load ptr, ptr %11, align 8, !tbaa !13
  %70 = load i32, ptr %14, align 4, !tbaa !21
  %71 = load i32, ptr %13, align 4, !tbaa !21
  %72 = mul nsw i32 %70, %71
  %73 = sext i32 %72 to i64
  %74 = getelementptr inbounds double, ptr %69, i64 %73
  %75 = load double, ptr %74, align 8, !tbaa !25
  %76 = fptrunc double %75 to float
  %77 = load ptr, ptr %8, align 8, !tbaa !11
  %78 = load ptr, ptr %77, align 8, !tbaa !29
  %79 = load i32, ptr %13, align 4, !tbaa !21
  %80 = add nsw i32 %79, 1
  %81 = sext i32 %80 to i64
  %82 = getelementptr inbounds float, ptr %78, i64 %81
  store float %76, ptr %82, align 4, !tbaa !31
  %83 = load ptr, ptr %11, align 8, !tbaa !13
  %84 = load i32, ptr %14, align 4, !tbaa !21
  %85 = load i32, ptr %13, align 4, !tbaa !21
  %86 = mul nsw i32 %84, %85
  %87 = add nsw i32 %86, 1
  %88 = sext i32 %87 to i64
  %89 = getelementptr inbounds double, ptr %83, i64 %88
  %90 = load double, ptr %89, align 8, !tbaa !25
  %91 = fptrunc double %90 to float
  %92 = load ptr, ptr %9, align 8, !tbaa !11
  %93 = load ptr, ptr %92, align 8, !tbaa !29
  %94 = load i32, ptr %13, align 4, !tbaa !21
  %95 = add nsw i32 %94, 1
  %96 = sext i32 %95 to i64
  %97 = getelementptr inbounds float, ptr %93, i64 %96
  store float %91, ptr %97, align 4, !tbaa !31
  %98 = load ptr, ptr %11, align 8, !tbaa !13
  %99 = load i32, ptr %14, align 4, !tbaa !21
  %100 = load i32, ptr %13, align 4, !tbaa !21
  %101 = mul nsw i32 %99, %100
  %102 = add nsw i32 %101, 2
  %103 = sext i32 %102 to i64
  %104 = getelementptr inbounds double, ptr %98, i64 %103
  %105 = load double, ptr %104, align 8, !tbaa !25
  %106 = fptrunc double %105 to float
  %107 = load ptr, ptr %10, align 8, !tbaa !11
  %108 = load ptr, ptr %107, align 8, !tbaa !29
  %109 = load i32, ptr %13, align 4, !tbaa !21
  %110 = add nsw i32 %109, 1
  %111 = sext i32 %110 to i64
  %112 = getelementptr inbounds float, ptr %108, i64 %111
  store float %106, ptr %112, align 4, !tbaa !31
  br label %113

113:                                              ; preds = %68
  %114 = load i32, ptr %13, align 4, !tbaa !21
  %115 = add nsw i32 %114, 1
  store i32 %115, ptr %13, align 4, !tbaa !21
  br label %64, !llvm.loop !33

116:                                              ; preds = %64
  %117 = load ptr, ptr %11, align 8, !tbaa !13
  call void @free(ptr noundef %117) #14
  call void @llvm.lifetime.end.p0(i64 4, ptr %20) #14
  call void @llvm.lifetime.end.p0(i64 8, ptr %19) #14
  call void @llvm.lifetime.end.p0(i64 8, ptr %18) #14
  call void @llvm.lifetime.end.p0(i64 1, ptr %16) #14
  call void @llvm.lifetime.end.p0(i64 8, ptr %15) #14
  call void @llvm.lifetime.end.p0(i64 4, ptr %14) #14
  call void @llvm.lifetime.end.p0(i64 4, ptr %13) #14
  call void @llvm.lifetime.end.p0(i64 4, ptr %12) #14
  call void @llvm.lifetime.end.p0(i64 8, ptr %11) #14
  ret void
}