; Function Attrs: nounwind uwtable
define dso_local void @map_palette_optimal_coloring(ptr noundef %0, ptr noundef %1, ptr noundef captures(none) %2, ptr noundef captures(none) %3, ptr noundef writeonly captures(none) %4) local_unnamed_addr #0 {
  %6 = alloca ptr, align 8
  %7 = alloca i32, align 4
  %8 = alloca ptr, align 8
  %9 = alloca [2 x i32], align 8
  call void @llvm.lifetime.start.p0(i64 8, ptr nonnull %6) #19
  store ptr null, ptr %6, align 8, !tbaa !4
  %10 = load i32, ptr %1, align 8, !tbaa !9
  call void @llvm.lifetime.start.p0(i64 4, ptr nonnull %7) #19
  call void @llvm.lifetime.start.p0(i64 8, ptr nonnull %8) #19
  store ptr null, ptr %8, align 8, !tbaa !4
  %11 = tail call ptr @SparseMatrix_symmetrize(ptr noundef nonnull %1, i1 noundef zeroext false) #19
  call void @SparseMatrix_distance_matrix(ptr noundef %11, ptr noundef nonnull %8) #19
  call void @SparseMatrix_delete(ptr noundef %11) #19
  %12 = load ptr, ptr %8, align 8, !tbaa !4
  %13 = call ptr @SparseMatrix_from_dense(i32 noundef %10, i32 noundef %10, ptr noundef %12) #19
  %14 = load ptr, ptr %8, align 8, !tbaa !4
  call void @free(ptr noundef %14) #19
  %15 = call ptr @SparseMatrix_remove_diagonal(ptr noundef %13) #19
  %16 = load ptr, ptr @stdout, align 8, !tbaa !15
  call void @SparseMatrix_export(ptr noundef %16, ptr noundef %15) #19
  call void @llvm.lifetime.end.p0(i64 8, ptr nonnull %8) #19
  call void @llvm.lifetime.start.p0(i64 8, ptr nonnull %9) #19
  store i64 429496729600, ptr %9, align 8
  %17 = call i32 @node_distinct_coloring(ptr noundef %0, ptr noundef nonnull %9, i1 noundef zeroext true, ptr noundef %15, double noundef 1.000000e-02, i32 noundef -10, ptr noundef nonnull %7, ptr noundef nonnull %6) #19
  %.not = icmp eq ptr %15, %1
  br i1 %.not, label %19, label %18

18:                                               ; preds = %5
  call void @SparseMatrix_delete(ptr noundef %15) #19
  br label %19

19:                                               ; preds = %18, %5
  %20 = add nsw i32 %10, 1
  %21 = sext i32 %20 to i64
  %.not.i = icmp eq i32 %20, 0
  br i1 %.not.i, label %gv_calloc.exit41.thread, label %22

22:                                               ; preds = %19
  %mul.ov.i = icmp slt i32 %10, -1
  br i1 %mul.ov.i, label %23, label %26

23:                                               ; preds = %22
  %24 = load ptr, ptr @stderr, align 8, !tbaa !15
  %25 = call i32 (ptr, ptr, ...) @fprintf(ptr noundef %24, ptr noundef nonnull @.str.25, i64 noundef %21, i64 noundef 4) #20
  call fastcc void @graphviz_exit() #21
  unreachable

26:                                               ; preds = %22
  %27 = call noalias ptr @calloc(i64 noundef %21, i64 noundef 4) #22
  %28 = icmp eq ptr %27, null
  br i1 %28, label %29, label %33

29:                                               ; preds = %26
  %30 = load ptr, ptr @stderr, align 8, !tbaa !15
  %31 = shl nuw nsw i64 %21, 2
  %32 = call i32 (ptr, ptr, ...) @fprintf(ptr noundef %30, ptr noundef nonnull @.str.26, i64 noundef %31) #20
  call fastcc void @graphviz_exit() #21
  unreachable

33:                                               ; preds = %26
  store ptr %27, ptr %2, align 8, !tbaa !17
  %34 = call noalias ptr @calloc(i64 noundef %21, i64 noundef 4) #22
  %35 = icmp eq ptr %34, null
  br i1 %35, label %36, label %43

36:                                               ; preds = %33
  %37 = load ptr, ptr @stderr, align 8, !tbaa !15
  %38 = shl nuw nsw i64 %21, 2
  %39 = call i32 (ptr, ptr, ...) @fprintf(ptr noundef %37, ptr noundef nonnull @.str.26, i64 noundef %38) #20
  call fastcc void @graphviz_exit() #21
  unreachable

gv_calloc.exit41.thread:                          ; preds = %19
  %40 = call noalias ptr @calloc(i64 noundef 0, i64 noundef 4) #22
  store ptr %40, ptr %2, align 8, !tbaa !17
  %41 = call noalias ptr @calloc(i64 noundef 0, i64 noundef 4) #22
  store ptr %41, ptr %3, align 8, !tbaa !17
  %42 = call noalias ptr @calloc(i64 noundef 0, i64 noundef 4) #22
  store ptr %42, ptr %4, align 8, !tbaa !17
  %.pre46 = load ptr, ptr %6, align 8, !tbaa !4
  br label %._crit_edge

43:                                               ; preds = %33
  store ptr %34, ptr %3, align 8, !tbaa !17
  %44 = call noalias ptr @calloc(i64 noundef %21, i64 noundef 4) #22
  %45 = icmp eq ptr %44, null
  br i1 %45, label %46, label %gv_calloc.exit41

46:                                               ; preds = %43
  %47 = load ptr, ptr @stderr, align 8, !tbaa !15
  %48 = shl nuw nsw i64 %21, 2
  %49 = call i32 (ptr, ptr, ...) @fprintf(ptr noundef %47, ptr noundef nonnull @.str.26, i64 noundef %48) #20
  call fastcc void @graphviz_exit() #21
  unreachable

gv_calloc.exit41:                                 ; preds = %43
  store ptr %44, ptr %4, align 8, !tbaa !17
  %.not48 = icmp eq i32 %10, 0
  %.pre = load ptr, ptr %6, align 8, !tbaa !4
  br i1 %.not48, label %._crit_edge, label %.lr.ph

.lr.ph:                                           ; preds = %gv_calloc.exit41
  %50 = load i32, ptr %7, align 4, !tbaa !19
  %51 = load ptr, ptr %2, align 8, !tbaa !17
  %52 = load ptr, ptr %3, align 8, !tbaa !17
  %53 = sext i32 %50 to i64
  %wide.trip.count = zext nneg i32 %10 to i64
  br label %54

54:                                               ; preds = %.lr.ph, %54
  %indvars.iv = phi i64 [ 0, %.lr.ph ], [ %indvars.iv.next, %54 ]
  %55 = mul nsw i64 %indvars.iv, %53
  %56 = getelementptr inbounds double, ptr %.pre, i64 %55
  %57 = load double, ptr %56, align 8, !tbaa !20
  %58 = fptrunc double %57 to float
  %indvars.iv.next = add nuw nsw i64 %indvars.iv, 1
  %59 = getelementptr inbounds nuw float, ptr %51, i64 %indvars.iv.next
  store float %58, ptr %59, align 4, !tbaa !22
  %60 = getelementptr i8, ptr %56, i64 8
  %61 = load double, ptr %60, align 8, !tbaa !20
  %62 = fptrunc double %61 to float
  %63 = getelementptr inbounds nuw float, ptr %52, i64 %indvars.iv.next
  store float %62, ptr %63, align 4, !tbaa !22
  %64 = getelementptr i8, ptr %56, i64 16
  %65 = load double, ptr %64, align 8, !tbaa !20
  %66 = fptrunc double %65 to float
  %67 = getelementptr inbounds nuw float, ptr %44, i64 %indvars.iv.next
  store float %66, ptr %67, align 4, !tbaa !22
  %exitcond.not = icmp eq i64 %indvars.iv.next, %wide.trip.count
  br i1 %exitcond.not, label %._crit_edge, label %54, !llvm.loop !24

._crit_edge:                                      ; preds = %54, %gv_calloc.exit41.thread, %gv_calloc.exit41
  %.pre47 = phi ptr [ %.pre46, %gv_calloc.exit41.thread ], [ %.pre, %gv_calloc.exit41 ], [ %.pre, %54 ]
  call void @free(ptr noundef %.pre47) #19
  call void @llvm.lifetime.end.p0(i64 8, ptr nonnull %9) #19
  call void @llvm.lifetime.end.p0(i64 4, ptr nonnull %7) #19
  call void @llvm.lifetime.end.p0(i64 8, ptr nonnull %6) #19
  ret void
}